; Function Attrs: mustprogress nounwind uwtable
define void @_ZN6icu_7519TransliteratorEntry10setFactoryEPFPNS_14TransliteratorERKNS_13UnicodeStringENS1_5TokenEES6_(ptr nocapture noundef nonnull align 8 dereferenceable(104) %this, ptr noundef %factory, ptr %context.coerce) local_unnamed_addr #0 align 2 {
entry:
  %0 = load i32, ptr %this, align 8
  %cmp = icmp eq i32 %0, 3
  br i1 %cmp, label %if.then, label %if.end

if.then:                                          ; preds = %entry
  %u = getelementptr inbounds i8, ptr %this, i64 88
  %1 = load ptr, ptr %u, align 8
  %isnull = icmp eq ptr %1, null
  br i1 %isnull, label %if.end, label %delete.notnull

delete.notnull:                                   ; preds = %if.then
  %vtable = load ptr, ptr %1, align 8
  %vfn = getelementptr inbounds i8, ptr %vtable, i64 8
  %2 = load ptr, ptr %vfn, align 8
  tail call void %2(ptr noundef nonnull align 8 dereferenceable(84) %1) #15
  br label %if.end

if.end:                                           ; preds = %if.then, %delete.notnull, %entry
  store i32 7, ptr %this, align 8
  %u3 = getelementptr inbounds i8, ptr %this, i64 88
  store ptr %factory, ptr %u3, align 8
  %context5 = getelementptr inbounds i8, ptr %this, i64 96
  store ptr %context.coerce, ptr %context5, align 8
  ret void
}